target datalayout = "e-m:e-p270:32:32-p271:32:32-p272:64:64-i64:64-i128:128-f80:128-n8:16:32:64-S128"
target triple = "x86_64-pc-linux-gnu"

%struct.HashValue = type { i32, %union.anon }
%union.anon = type { i32, [28 x i8] }

; Function Attrs: mustprogress nounwind uwtable
define linkonce_odr void @_Z7RawPut4jPv(i32 noundef %0, ptr noundef %1) #0 comdat {
  %3 = alloca i32, align 4
  %4 = alloca ptr, align 8
  store i32 %0, ptr %3, align 4
  store ptr %1, ptr %4, align 8
  %5 = load i32, ptr %3, align 4
  %6 = load ptr, ptr %4, align 8
  store i32 %5, ptr %6, align 4
  ret void
}

; Function Attrs: mustprogress uwtable
define void @_Z16ConvertHashToMACP9HashValuePh(ptr noundef %0, ptr noundef %1) #1 {
  %3 = alloca ptr, align 8
  %4 = alloca ptr, align 8
  %5 = alloca [4 x i8], align 1
  %6 = alloca [32 x i8], align 16
  %7 = alloca i32, align 4
  %8 = alloca [32 x i8], align 16
  store ptr %0, ptr %3, align 8
  store ptr %1, ptr %4, align 8
  %9 = load ptr, ptr %3, align 8
  %10 = getelementptr inbounds %struct.HashValue, ptr %9, i32 0, i32 0
  %11 = load i32, ptr %10, align 4
  %12 = icmp eq i32 %11, 2
  br i1 %12, label %13, label %45

13:                                               ; preds = %2
  %14 = load ptr, ptr %3, align 8
  %15 = getelementptr inbounds %struct.HashValue, ptr %14, i32 0, i32 1
  %16 = load i32, ptr %15, align 4
  %17 = getelementptr inbounds [4 x i8], ptr %5, i64 0, i64 0
  call void @_Z7RawPut4jPv(i32 noundef %16, ptr noundef %17)
  %18 = load ptr, ptr %4, align 8
  %19 = getelementptr inbounds [4 x i8], ptr %5, i64 0, i64 0
  %20 = getelementptr inbounds [32 x i8], ptr %6, i64 0, i64 0
  call void @_ZL11hmac_sha256PKhmS0_mPhP14sha256_contextPbS3_S4_(ptr noundef %18, i64 noundef 32, ptr noundef %19, i64 noundef 4, ptr noundef %20, ptr noundef null, ptr noundef null, ptr noundef null, ptr noundef null)
  %21 = load ptr, ptr %3, align 8
  %22 = getelementptr inbounds %struct.HashValue, ptr %21, i32 0, i32 1
  store i32 0, ptr %22, align 4
  store i32 0, ptr %7, align 4
  br label %23

23:                                               ; preds = %41, %13
  %24 = load i32, ptr %7, align 4
  %25 = zext i32 %24 to i64
  %26 = icmp ult i64 %25, 32
  br i1 %26, label %27, label %44

27:                                               ; preds = %23
  %28 = load i32, ptr %7, align 4
  %29 = zext i32 %28 to i64
  %30 = getelementptr inbounds [32 x i8], ptr %6, i64 0, i64 %29
  %31 = load i8, ptr %30, align 1
  %32 = zext i8 %31 to i32
  %33 = load i32, ptr %7, align 4
  %34 = and i32 %33, 3
  %35 = mul i32 %34, 8
  %36 = shl i32 %32, %35
  %37 = load ptr, ptr %3, align 8
  %38 = getelementptr inbounds %struct.HashValue, ptr %37, i32 0, i32 1
  %39 = load i32, ptr %38, align 4
  %40 = xor i32 %39, %36
  store i32 %40, ptr %38, align 4
  br label %41

41:                                               ; preds = %27
  %42 = load i32, ptr %7, align 4
  %43 = add i32 %42, 1
  store i32 %43, ptr %7, align 4
  br label %23, !llvm.loop !30

44:                                               ; preds = %23
  br label %45

45:                                               ; preds = %44, %2
  %46 = load ptr, ptr %3, align 8
  %47 = getelementptr inbounds %struct.HashValue, ptr %46, i32 0, i32 0
  %48 = load i32, ptr %47, align 4
  %49 = icmp eq i32 %48, 3
  br i1 %49, label %50, label %60

50:                                               ; preds = %45
  %51 = load ptr, ptr %4, align 8
  %52 = load ptr, ptr %3, align 8
  %53 = getelementptr inbounds %struct.HashValue, ptr %52, i32 0, i32 1
  %54 = getelementptr inbounds [32 x i8], ptr %53, i64 0, i64 0
  %55 = getelementptr inbounds [32 x i8], ptr %8, i64 0, i64 0
  call void @_ZL11hmac_sha256PKhmS0_mPhP14sha256_contextPbS3_S4_(ptr noundef %51, i64 noundef 32, ptr noundef %54, i64 noundef 32, ptr noundef %55, ptr noundef null, ptr noundef null, ptr noundef null, ptr noundef null)
  %56 = load ptr, ptr %3, align 8
  %57 = getelementptr inbounds %struct.HashValue, ptr %56, i32 0, i32 1
  %58 = getelementptr inbounds [32 x i8], ptr %57, i64 0, i64 0
  %59 = getelementptr inbounds [32 x i8], ptr %8, i64 0, i64 0
  call void @llvm.memcpy.p0.p0.i64(ptr align 4 %58, ptr align 16 %59, i64 32, i1 false)
  br label %60

60:                                               ; preds = %50, %45
  ret void
}