; Function Attrs: mustprogress uwtable
define void @_Z16ConvertHashToMACP9HashValuePh(ptr noundef %0, ptr noundef %1) local_unnamed_addr #1 {
  %3 = alloca [4 x i8], align 1
  %4 = alloca [32 x i8], align 16
  %5 = alloca [32 x i8], align 16
  %6 = load i32, ptr %0, align 4
  %7 = icmp eq i32 %6, 2
  br i1 %7, label %8, label %20

8:                                                ; preds = %2
  %9 = getelementptr inbounds nuw i8, ptr %0, i64 4
  %10 = load i32, ptr %9, align 4
  store i32 %10, ptr %3, align 4
  call fastcc void @_ZL11hmac_sha256PKhmS0_mPhP14sha256_contextPbS3_S4_(ptr noundef %1, i64 noundef 32, ptr noundef nonnull %3, i64 noundef 4, ptr noundef %4, ptr noundef null, ptr noundef null, ptr noundef null, ptr noundef null)
  br label %11

11:                                               ; preds = %8, %11
  %indvars.iv = phi i64 [ 0, %8 ], [ %indvars.iv.next, %11 ]
  %12 = phi i32 [ 0, %8 ], [ %19, %11 ]
  %13 = getelementptr inbounds nuw [32 x i8], ptr %4, i64 0, i64 %indvars.iv
  %14 = load i8, ptr %13, align 1
  %15 = zext i8 %14 to i32
  %indvars.iv.tr = trunc i64 %indvars.iv to i32
  %16 = shl i32 %indvars.iv.tr, 3
  %17 = and i32 %16, 24
  %18 = shl nuw i32 %15, %17
  %19 = xor i32 %18, %12
  %indvars.iv.next = add nuw nsw i64 %indvars.iv, 1
  %exitcond.not = icmp eq i64 %indvars.iv.next, 32
  br i1 %exitcond.not, label %thread-pre-split, label %11, !llvm.loop !27

thread-pre-split:                                 ; preds = %11
  store i32 %19, ptr %9, align 4
  %.pr = load i32, ptr %0, align 4
  br label %20

20:                                               ; preds = %thread-pre-split, %2
  %21 = phi i32 [ %.pr, %thread-pre-split ], [ %6, %2 ]
  %22 = icmp eq i32 %21, 3
  br i1 %22, label %23, label %25

23:                                               ; preds = %20
  %24 = getelementptr inbounds nuw i8, ptr %0, i64 4
  call fastcc void @_ZL11hmac_sha256PKhmS0_mPhP14sha256_contextPbS3_S4_(ptr noundef %1, i64 noundef 32, ptr noundef nonnull %24, i64 noundef 32, ptr noundef %5, ptr noundef null, ptr noundef null, ptr noundef null, ptr noundef null)
  call void @llvm.memcpy.p0.p0.i64(ptr noundef nonnull align 4 dereferenceable(32) %24, ptr noundef nonnull align 16 dereferenceable(32) %5, i64 32, i1 false)
  br label %25

25:                                               ; preds = %23, %20
  ret void
}